target datalayout = "e-m:e-p270:32:32-p271:32:32-p272:64:64-i64:64-i128:128-f80:128-n8:16:32:64-S128"
target triple = "x86_64-pc-linux-gnu"

@_prte_crc_table = internal global [256 x i32] zeroinitializer, align 16
@_prte_crc_table_initialized = internal global i8 0, align 1

; Function Attrs: nounwind uwtable
define void @prte_initialize_crc_table() #0 {
  %1 = alloca i32, align 4
  %2 = alloca i32, align 4
  %3 = alloca i32, align 4
  call void @llvm.lifetime.start.p0(i64 4, ptr %1) #3
  call void @llvm.lifetime.start.p0(i64 4, ptr %2) #3
  call void @llvm.lifetime.start.p0(i64 4, ptr %3) #3
  store i32 0, ptr %1, align 4, !tbaa !27
  br label %4

4:                                                ; preds = %33, %0
  %5 = load i32, ptr %1, align 4, !tbaa !27
  %6 = icmp slt i32 %5, 256
  br i1 %6, label %7, label %36

7:                                                ; preds = %4
  %8 = load i32, ptr %1, align 4, !tbaa !27
  %9 = shl i32 %8, 24
  store i32 %9, ptr %3, align 4, !tbaa !27
  store i32 0, ptr %2, align 4, !tbaa !27
  br label %10

10:                                               ; preds = %25, %7
  %11 = load i32, ptr %2, align 4, !tbaa !27
  %12 = icmp slt i32 %11, 8
  br i1 %12, label %13, label %28

13:                                               ; preds = %10
  %14 = load i32, ptr %3, align 4, !tbaa !27
  %15 = and i32 %14, -2147483648
  %16 = icmp ne i32 %15, 0
  br i1 %16, label %17, label %21

17:                                               ; preds = %13
  %18 = load i32, ptr %3, align 4, !tbaa !27
  %19 = shl i32 %18, 1
  %20 = xor i32 %19, 79764919
  store i32 %20, ptr %3, align 4, !tbaa !27
  br label %24

21:                                               ; preds = %13
  %22 = load i32, ptr %3, align 4, !tbaa !27
  %23 = shl i32 %22, 1
  store i32 %23, ptr %3, align 4, !tbaa !27
  br label %24

24:                                               ; preds = %21, %17
  br label %25

25:                                               ; preds = %24
  %26 = load i32, ptr %2, align 4, !tbaa !27
  %27 = add nsw i32 %26, 1
  store i32 %27, ptr %2, align 4, !tbaa !27
  br label %10, !llvm.loop !52

28:                                               ; preds = %10
  %29 = load i32, ptr %3, align 4, !tbaa !27
  %30 = load i32, ptr %1, align 4, !tbaa !27
  %31 = sext i32 %30 to i64
  %32 = getelementptr inbounds [256 x i32], ptr @_prte_crc_table, i64 0, i64 %31
  store i32 %29, ptr %32, align 4, !tbaa !27
  br label %33

33:                                               ; preds = %28
  %34 = load i32, ptr %1, align 4, !tbaa !27
  %35 = add nsw i32 %34, 1
  store i32 %35, ptr %1, align 4, !tbaa !27
  br label %4, !llvm.loop !53

36:                                               ; preds = %4
  store i8 1, ptr @_prte_crc_table_initialized, align 1, !tbaa !54
  call void @llvm.lifetime.end.p0(i64 4, ptr %3) #3
  call void @llvm.lifetime.end.p0(i64 4, ptr %2) #3
  call void @llvm.lifetime.end.p0(i64 4, ptr %1) #3
  ret void
}

; Function Attrs: nounwind uwtable
define i32 @prte_uicrc_partial(ptr noundef %0, i64 noundef %1, i32 noundef %2) #0 {
  %4 = alloca ptr, align 8
  %5 = alloca i64, align 8
  %6 = alloca i32, align 4
  %7 = alloca i32, align 4
  %8 = alloca i32, align 4
  %9 = alloca ptr, align 8
  %10 = alloca i32, align 4
  %11 = alloca ptr, align 8
  %12 = alloca ptr, align 8
  store ptr %0, ptr %4, align 8, !tbaa !3
  store i64 %1, ptr %5, align 8, !tbaa !7
  store i32 %2, ptr %6, align 4, !tbaa !27
  call void @llvm.lifetime.start.p0(i64 4, ptr %7) #3
  call void @llvm.lifetime.start.p0(i64 4, ptr %8) #3
  call void @llvm.lifetime.start.p0(i64 8, ptr %9) #3
  call void @llvm.lifetime.start.p0(i64 4, ptr %10) #3
  %13 = load i8, ptr @_prte_crc_table_initialized, align 1, !tbaa !54, !range !56, !noundef !57
  %14 = trunc i8 %13 to i1
  br i1 %14, label %16, label %15

15:                                               ; preds = %3
  call void @prte_initialize_crc_table()
  br label %16

16:                                               ; preds = %15, %3
  %17 = load ptr, ptr %4, align 8, !tbaa !3
  %18 = ptrtoint ptr %17 to i64
  %19 = and i64 %18, 3
  %20 = icmp ne i64 %19, 0
  br i1 %20, label %21, label %22

21:                                               ; preds = %16
  br i1 false, label %23, label %80

22:                                               ; preds = %16
  br i1 true, label %23, label %80

23:                                               ; preds = %22, %21
  call void @llvm.lifetime.start.p0(i64 8, ptr %11) #3
  %24 = load ptr, ptr %4, align 8, !tbaa !3
  store ptr %24, ptr %11, align 8, !tbaa !25
  br label %25

25:                                               ; preds = %54, %23
  %26 = load i64, ptr %5, align 8, !tbaa !7
  %27 = icmp uge i64 %26, 4
  br i1 %27, label %28, label %57

28:                                               ; preds = %25
  %29 = load ptr, ptr %11, align 8, !tbaa !25
  %30 = getelementptr inbounds nuw i32, ptr %29, i32 1
  store ptr %30, ptr %11, align 8, !tbaa !25
  %31 = load i32, ptr %29, align 4, !tbaa !27
  store i32 %31, ptr %10, align 4, !tbaa !27
  store ptr %10, ptr %9, align 8, !tbaa !58
  store i32 0, ptr %8, align 4, !tbaa !27
  br label %32

32:                                               ; preds = %51, %28
  %33 = load i32, ptr %8, align 4, !tbaa !27
  %34 = icmp slt i32 %33, 4
  br i1 %34, label %35, label %54

35:                                               ; preds = %32
  %36 = load i32, ptr %6, align 4, !tbaa !27
  %37 = lshr i32 %36, 24
  %38 = load ptr, ptr %9, align 8, !tbaa !58
  %39 = getelementptr inbounds nuw i8, ptr %38, i32 1
  store ptr %39, ptr %9, align 8, !tbaa !58
  %40 = load i8, ptr %38, align 1, !tbaa !60
  %41 = zext i8 %40 to i32
  %42 = xor i32 %37, %41
  %43 = and i32 %42, 255
  store i32 %43, ptr %7, align 4, !tbaa !27
  %44 = load i32, ptr %6, align 4, !tbaa !27
  %45 = shl i32 %44, 8
  %46 = load i32, ptr %7, align 4, !tbaa !27
  %47 = sext i32 %46 to i64
  %48 = getelementptr inbounds [256 x i32], ptr @_prte_crc_table, i64 0, i64 %47
  %49 = load i32, ptr %48, align 4, !tbaa !27
  %50 = xor i32 %45, %49
  store i32 %50, ptr %6, align 4, !tbaa !27
  br label %51

51:                                               ; preds = %35
  %52 = load i32, ptr %8, align 4, !tbaa !27
  %53 = add nsw i32 %52, 1
  store i32 %53, ptr %8, align 4, !tbaa !27
  br label %32, !llvm.loop !67

54:                                               ; preds = %32
  %55 = load i64, ptr %5, align 8, !tbaa !7
  %56 = sub i64 %55, 4
  store i64 %56, ptr %5, align 8, !tbaa !7
  br label %25, !llvm.loop !68

57:                                               ; preds = %25
  %58 = load ptr, ptr %11, align 8, !tbaa !25
  store ptr %58, ptr %9, align 8, !tbaa !58
  br label %59

59:                                               ; preds = %63, %57
  %60 = load i64, ptr %5, align 8, !tbaa !7
  %61 = add i64 %60, -1
  store i64 %61, ptr %5, align 8, !tbaa !7
  %62 = icmp ne i64 %60, 0
  br i1 %62, label %63, label %79

63:                                               ; preds = %59
  %64 = load i32, ptr %6, align 4, !tbaa !27
  %65 = lshr i32 %64, 24
  %66 = load ptr, ptr %9, align 8, !tbaa !58
  %67 = getelementptr inbounds nuw i8, ptr %66, i32 1
  store ptr %67, ptr %9, align 8, !tbaa !58
  %68 = load i8, ptr %66, align 1, !tbaa !60
  %69 = zext i8 %68 to i32
  %70 = xor i32 %65, %69
  %71 = and i32 %70, 255
  store i32 %71, ptr %7, align 4, !tbaa !27
  %72 = load i32, ptr %6, align 4, !tbaa !27
  %73 = shl i32 %72, 8
  %74 = load i32, ptr %7, align 4, !tbaa !27
  %75 = sext i32 %74 to i64
  %76 = getelementptr inbounds [256 x i32], ptr @_prte_crc_table, i64 0, i64 %75
  %77 = load i32, ptr %76, align 4, !tbaa !27
  %78 = xor i32 %73, %77
  store i32 %78, ptr %6, align 4, !tbaa !27
  br label %59, !llvm.loop !69

79:                                               ; preds = %59
  call void @llvm.lifetime.end.p0(i64 8, ptr %11) #3
  br label %103

80:                                               ; preds = %22, %21
  call void @llvm.lifetime.start.p0(i64 8, ptr %12) #3
  %81 = load ptr, ptr %4, align 8, !tbaa !3
  store ptr %81, ptr %12, align 8, !tbaa !58
  br label %82

82:                                               ; preds = %86, %80
  %83 = load i64, ptr %5, align 8, !tbaa !7
  %84 = add i64 %83, -1
  store i64 %84, ptr %5, align 8, !tbaa !7
  %85 = icmp ne i64 %83, 0
  br i1 %85, label %86, label %102

86:                                               ; preds = %82
  %87 = load i32, ptr %6, align 4, !tbaa !27
  %88 = lshr i32 %87, 24
  %89 = load ptr, ptr %12, align 8, !tbaa !58
  %90 = getelementptr inbounds nuw i8, ptr %89, i32 1
  store ptr %90, ptr %12, align 8, !tbaa !58
  %91 = load i8, ptr %89, align 1, !tbaa !60
  %92 = zext i8 %91 to i32
  %93 = xor i32 %88, %92
  %94 = and i32 %93, 255
  store i32 %94, ptr %7, align 4, !tbaa !27
  %95 = load i32, ptr %6, align 4, !tbaa !27
  %96 = shl i32 %95, 8
  %97 = load i32, ptr %7, align 4, !tbaa !27
  %98 = sext i32 %97 to i64
  %99 = getelementptr inbounds [256 x i32], ptr @_prte_crc_table, i64 0, i64 %98
  %100 = load i32, ptr %99, align 4, !tbaa !27
  %101 = xor i32 %96, %100
  store i32 %101, ptr %6, align 4, !tbaa !27
  br label %82, !llvm.loop !70

102:                                              ; preds = %82
  call void @llvm.lifetime.end.p0(i64 8, ptr %12) #3
  br label %103

103:                                              ; preds = %102, %79
  %104 = load i32, ptr %6, align 4, !tbaa !27
  call void @llvm.lifetime.end.p0(i64 4, ptr %10) #3
  call void @llvm.lifetime.end.p0(i64 8, ptr %9) #3
  call void @llvm.lifetime.end.p0(i64 4, ptr %8) #3
  call void @llvm.lifetime.end.p0(i64 4, ptr %7) #3
  ret i32 %104
}