; Function Attrs: nofree norecurse nosync nounwind memory(readwrite, argmem: read, inaccessiblemem: none) uwtable
define i32 @prte_uicrc_partial(ptr noundef %0, i64 noundef %1, i32 noundef %2) local_unnamed_addr #4 {
  %4 = alloca i32, align 4
  call void @llvm.lifetime.start.p0(i64 4, ptr nonnull %4) #7
  %.b31 = load i1, ptr @_prte_crc_table_initialized, align 1
  br i1 %.b31, label %12, label %.preheader37

.preheader37:                                     ; preds = %3, %10
  %indvars.iv.i = phi i64 [ %indvars.iv.next.i, %10 ], [ 0, %3 ]
  %indvars.iv.tr.i = trunc i64 %indvars.iv.i to i32
  %5 = shl i32 %indvars.iv.tr.i, 24
  br label %6

6:                                                ; preds = %6, %.preheader37
  %.014.i = phi i32 [ %5, %.preheader37 ], [ %.1.i, %6 ]
  %.01013.i = phi i32 [ 0, %.preheader37 ], [ %9, %6 ]
  %7 = shl i32 %.014.i, 1
  %8 = xor i32 %7, 79764919
  %.not12.i = icmp slt i32 %.014.i, 0
  %.1.i = select i1 %.not12.i, i32 %8, i32 %7
  %9 = add nuw nsw i32 %.01013.i, 1
  %exitcond.not.i = icmp eq i32 %9, 8
  br i1 %exitcond.not.i, label %10, label %6, !llvm.loop !46

10:                                               ; preds = %6
  %11 = getelementptr inbounds nuw [256 x i32], ptr @_prte_crc_table, i64 0, i64 %indvars.iv.i
  store i32 %.1.i, ptr %11, align 4, !tbaa !21
  %indvars.iv.next.i = add nuw nsw i64 %indvars.iv.i, 1
  %exitcond17.not.i = icmp eq i64 %indvars.iv.next.i, 256
  br i1 %exitcond17.not.i, label %prte_initialize_crc_table.exit, label %.preheader37, !llvm.loop !47

prte_initialize_crc_table.exit:                   ; preds = %10
  store i1 true, ptr @_prte_crc_table_initialized, align 1
  br label %12

12:                                               ; preds = %prte_initialize_crc_table.exit, %3
  %13 = ptrtoint ptr %0 to i64
  %14 = and i64 %13, 3
  %.not = icmp eq i64 %14, 0
  br i1 %.not, label %.preheader34, label %.preheader35

.preheader35:                                     ; preds = %12
  %.not3338 = icmp eq i64 %1, 0
  br i1 %.not3338, label %.loopexit, label %.lr.ph

.preheader34:                                     ; preds = %12
  %15 = icmp ugt i64 %1, 3
  br i1 %15, label %.lr.ph48, label %.preheader

.preheader:                                       ; preds = %27, %.preheader34
  %.028.lcssa = phi i64 [ %1, %.preheader34 ], [ %29, %27 ]
  %.026.lcssa = phi i32 [ %2, %.preheader34 ], [ %26, %27 ]
  %.023.lcssa = phi ptr [ %0, %.preheader34 ], [ %28, %27 ]
  %.not3252 = icmp eq i64 %.028.lcssa, 0
  br i1 %.not3252, label %.loopexit, label %.lr.ph56

.lr.ph48:                                         ; preds = %.preheader34, %27
  %.02347 = phi ptr [ %28, %27 ], [ %0, %.preheader34 ]
  %.02646 = phi i32 [ %26, %27 ], [ %2, %.preheader34 ]
  %.02845 = phi i64 [ %29, %27 ], [ %1, %.preheader34 ]
  %16 = load i32, ptr %.02347, align 4, !tbaa !21
  store i32 %16, ptr %4, align 4, !tbaa !21
  br label %17

17:                                               ; preds = %.lr.ph48, %17
  %.02444.idx = phi i64 [ 0, %.lr.ph48 ], [ %.02444.add, %17 ]
  %.12742 = phi i32 [ %.02646, %.lr.ph48 ], [ %26, %17 ]
  %.02444.ptr = getelementptr inbounds nuw i8, ptr %4, i64 %.02444.idx
  %18 = lshr i32 %.12742, 24
  %.02444.add = add nuw nsw i64 %.02444.idx, 1
  %19 = load i8, ptr %.02444.ptr, align 1, !tbaa !48
  %20 = zext i8 %19 to i32
  %21 = xor i32 %18, %20
  %22 = shl i32 %.12742, 8
  %23 = zext nneg i32 %21 to i64
  %24 = getelementptr inbounds nuw [256 x i32], ptr @_prte_crc_table, i64 0, i64 %23
  %25 = load i32, ptr %24, align 4, !tbaa !21
  %26 = xor i32 %25, %22
  %exitcond.not = icmp eq i64 %.02444.idx, 3
  br i1 %exitcond.not, label %27, label %17, !llvm.loop !55

27:                                               ; preds = %17
  %28 = getelementptr inbounds nuw i8, ptr %.02347, i64 4
  %29 = add i64 %.02845, -4
  %30 = icmp ugt i64 %29, 3
  br i1 %30, label %.lr.ph48, label %.preheader, !llvm.loop !56

.lr.ph56:                                         ; preds = %.preheader, %.lr.ph56
  %.155 = phi ptr [ %33, %.lr.ph56 ], [ %.023.lcssa, %.preheader ]
  %.254 = phi i32 [ %41, %.lr.ph56 ], [ %.026.lcssa, %.preheader ]
  %.12953 = phi i64 [ %31, %.lr.ph56 ], [ %.028.lcssa, %.preheader ]
  %31 = add i64 %.12953, -1
  %32 = lshr i32 %.254, 24
  %33 = getelementptr inbounds nuw i8, ptr %.155, i64 1
  %34 = load i8, ptr %.155, align 1, !tbaa !48
  %35 = zext i8 %34 to i32
  %36 = xor i32 %32, %35
  %37 = shl i32 %.254, 8
  %38 = zext nneg i32 %36 to i64
  %39 = getelementptr inbounds nuw [256 x i32], ptr @_prte_crc_table, i64 0, i64 %38
  %40 = load i32, ptr %39, align 4, !tbaa !21
  %41 = xor i32 %40, %37
  %.not32 = icmp eq i64 %31, 0
  br i1 %.not32, label %.loopexit, label %.lr.ph56, !llvm.loop !57

.lr.ph:                                           ; preds = %.preheader35, %.lr.ph
  %.041 = phi ptr [ %44, %.lr.ph ], [ %0, %.preheader35 ]
  %.440 = phi i32 [ %52, %.lr.ph ], [ %2, %.preheader35 ]
  %.23039 = phi i64 [ %42, %.lr.ph ], [ %1, %.preheader35 ]
  %42 = add i64 %.23039, -1
  %43 = lshr i32 %.440, 24
  %44 = getelementptr inbounds nuw i8, ptr %.041, i64 1
  %45 = load i8, ptr %.041, align 1, !tbaa !48
  %46 = zext i8 %45 to i32
  %47 = xor i32 %43, %46
  %48 = shl i32 %.440, 8
  %49 = zext nneg i32 %47 to i64
  %50 = getelementptr inbounds nuw [256 x i32], ptr @_prte_crc_table, i64 0, i64 %49
  %51 = load i32, ptr %50, align 4, !tbaa !21
  %52 = xor i32 %51, %48
  %.not33 = icmp eq i64 %42, 0
  br i1 %.not33, label %.loopexit, label %.lr.ph, !llvm.loop !58

.loopexit:                                        ; preds = %.lr.ph, %.lr.ph56, %.preheader35, %.preheader
  %.3 = phi i32 [ %.026.lcssa, %.preheader ], [ %2, %.preheader35 ], [ %41, %.lr.ph56 ], [ %52, %.lr.ph ]
  call void @llvm.lifetime.end.p0(i64 4, ptr nonnull %4) #7
  ret i32 %.3
}